
bomb:     file format elf64-x86-64


Disassembly of section .init:

0000000000000ef8 <_init>:
 ef8:	48 83 ec 08          	sub    $0x8,%rsp
 efc:	48 8b 05 dd 30 20 00 	mov    0x2030dd(%rip),%rax        # 203fe0 <__gmon_start__>
 f03:	48 85 c0             	test   %rax,%rax
 f06:	74 02                	je     f0a <_init+0x12>
 f08:	ff d0                	callq  *%rax
 f0a:	48 83 c4 08          	add    $0x8,%rsp
 f0e:	c3                   	retq   

Disassembly of section .plt:

0000000000000f10 <.plt>:
     f10:	ff 35 f2 30 20 00    	pushq  0x2030f2(%rip)        # 204008 <_GLOBAL_OFFSET_TABLE_+0x8>
     f16:	ff 25 f4 30 20 00    	jmpq   *0x2030f4(%rip)        # 204010 <_GLOBAL_OFFSET_TABLE_+0x10>
     f1c:	0f 1f 40 00          	nopl   0x0(%rax)

0000000000000f20 <getenv@plt>:
     f20:	ff 25 f2 30 20 00    	jmpq   *0x2030f2(%rip)        # 204018 <getenv@GLIBC_2.2.5>
     f26:	68 00 00 00 00       	pushq  $0x0
     f2b:	e9 e0 ff ff ff       	jmpq   f10 <.plt>

0000000000000f30 <__errno_location@plt>:
     f30:	ff 25 ea 30 20 00    	jmpq   *0x2030ea(%rip)        # 204020 <__errno_location@GLIBC_2.2.5>
     f36:	68 01 00 00 00       	pushq  $0x1
     f3b:	e9 d0 ff ff ff       	jmpq   f10 <.plt>

0000000000000f40 <strcpy@plt>:
     f40:	ff 25 e2 30 20 00    	jmpq   *0x2030e2(%rip)        # 204028 <strcpy@GLIBC_2.2.5>
     f46:	68 02 00 00 00       	pushq  $0x2
     f4b:	e9 c0 ff ff ff       	jmpq   f10 <.plt>

0000000000000f50 <puts@plt>:
     f50:	ff 25 da 30 20 00    	jmpq   *0x2030da(%rip)        # 204030 <puts@GLIBC_2.2.5>
     f56:	68 03 00 00 00       	pushq  $0x3
     f5b:	e9 b0 ff ff ff       	jmpq   f10 <.plt>

0000000000000f60 <write@plt>:
     f60:	ff 25 d2 30 20 00    	jmpq   *0x2030d2(%rip)        # 204038 <write@GLIBC_2.2.5>
     f66:	68 04 00 00 00       	pushq  $0x4
     f6b:	e9 a0 ff ff ff       	jmpq   f10 <.plt>

0000000000000f70 <fclose@plt>:
     f70:	ff 25 ca 30 20 00    	jmpq   *0x2030ca(%rip)        # 204040 <fclose@GLIBC_2.2.5>
     f76:	68 05 00 00 00       	pushq  $0x5
     f7b:	e9 90 ff ff ff       	jmpq   f10 <.plt>

0000000000000f80 <system@plt>:
     f80:	ff 25 c2 30 20 00    	jmpq   *0x2030c2(%rip)        # 204048 <system@GLIBC_2.2.5>
     f86:	68 06 00 00 00       	pushq  $0x6
     f8b:	e9 80 ff ff ff       	jmpq   f10 <.plt>

0000000000000f90 <printf@plt>:
     f90:	ff 25 ba 30 20 00    	jmpq   *0x2030ba(%rip)        # 204050 <printf@GLIBC_2.2.5>
     f96:	68 07 00 00 00       	pushq  $0x7
     f9b:	e9 70 ff ff ff       	jmpq   f10 <.plt>

0000000000000fa0 <rewind@plt>:
     fa0:	ff 25 b2 30 20 00    	jmpq   *0x2030b2(%rip)        # 204058 <rewind@GLIBC_2.2.5>
     fa6:	68 08 00 00 00       	pushq  $0x8
     fab:	e9 60 ff ff ff       	jmpq   f10 <.plt>

0000000000000fb0 <dup@plt>:
     fb0:	ff 25 aa 30 20 00    	jmpq   *0x2030aa(%rip)        # 204060 <dup@GLIBC_2.2.5>
     fb6:	68 09 00 00 00       	pushq  $0x9
     fbb:	e9 50 ff ff ff       	jmpq   f10 <.plt>

0000000000000fc0 <close@plt>:
     fc0:	ff 25 a2 30 20 00    	jmpq   *0x2030a2(%rip)        # 204068 <close@GLIBC_2.2.5>
     fc6:	68 0a 00 00 00       	pushq  $0xa
     fcb:	e9 40 ff ff ff       	jmpq   f10 <.plt>

0000000000000fd0 <fputc@plt>:
     fd0:	ff 25 9a 30 20 00    	jmpq   *0x20309a(%rip)        # 204070 <fputc@GLIBC_2.2.5>
     fd6:	68 0b 00 00 00       	pushq  $0xb
     fdb:	e9 30 ff ff ff       	jmpq   f10 <.plt>

0000000000000fe0 <fgets@plt>:
     fe0:	ff 25 92 30 20 00    	jmpq   *0x203092(%rip)        # 204078 <fgets@GLIBC_2.2.5>
     fe6:	68 0c 00 00 00       	pushq  $0xc
     feb:	e9 20 ff ff ff       	jmpq   f10 <.plt>

0000000000000ff0 <tmpfile@plt>:
     ff0:	ff 25 8a 30 20 00    	jmpq   *0x20308a(%rip)        # 204080 <tmpfile@GLIBC_2.2.5>
     ff6:	68 0d 00 00 00       	pushq  $0xd
     ffb:	e9 10 ff ff ff       	jmpq   f10 <.plt>

0000000000001000 <signal@plt>:
    1000:	ff 25 82 30 20 00    	jmpq   *0x203082(%rip)        # 204088 <signal@GLIBC_2.2.5>
    1006:	68 0e 00 00 00       	pushq  $0xe
    100b:	e9 00 ff ff ff       	jmpq   f10 <.plt>

0000000000001010 <gethostbyname@plt>:
    1010:	ff 25 7a 30 20 00    	jmpq   *0x20307a(%rip)        # 204090 <gethostbyname@GLIBC_2.2.5>
    1016:	68 0f 00 00 00       	pushq  $0xf
    101b:	e9 f0 fe ff ff       	jmpq   f10 <.plt>

0000000000001020 <fprintf@plt>:
    1020:	ff 25 72 30 20 00    	jmpq   *0x203072(%rip)        # 204098 <fprintf@GLIBC_2.2.5>
    1026:	68 10 00 00 00       	pushq  $0x10
    102b:	e9 e0 fe ff ff       	jmpq   f10 <.plt>

0000000000001030 <strtol@plt>:
    1030:	ff 25 6a 30 20 00    	jmpq   *0x20306a(%rip)        # 2040a0 <strtol@GLIBC_2.2.5>
    1036:	68 11 00 00 00       	pushq  $0x11
    103b:	e9 d0 fe ff ff       	jmpq   f10 <.plt>

0000000000001040 <inet_pton@plt>:
    1040:	ff 25 62 30 20 00    	jmpq   *0x203062(%rip)        # 2040a8 <inet_pton@GLIBC_2.2.5>
    1046:	68 12 00 00 00       	pushq  $0x12
    104b:	e9 c0 fe ff ff       	jmpq   f10 <.plt>

0000000000001050 <fflush@plt>:
    1050:	ff 25 5a 30 20 00    	jmpq   *0x20305a(%rip)        # 2040b0 <fflush@GLIBC_2.2.5>
    1056:	68 13 00 00 00       	pushq  $0x13
    105b:	e9 b0 fe ff ff       	jmpq   f10 <.plt>

0000000000001060 <__isoc99_sscanf@plt>:
    1060:	ff 25 52 30 20 00    	jmpq   *0x203052(%rip)        # 2040b8 <__isoc99_sscanf@GLIBC_2.7>
    1066:	68 14 00 00 00       	pushq  $0x14
    106b:	e9 a0 fe ff ff       	jmpq   f10 <.plt>

0000000000001070 <bcopy@plt>:
    1070:	ff 25 4a 30 20 00    	jmpq   *0x20304a(%rip)        # 2040c0 <bcopy@GLIBC_2.2.5>
    1076:	68 15 00 00 00       	pushq  $0x15
    107b:	e9 90 fe ff ff       	jmpq   f10 <.plt>

0000000000001080 <cuserid@plt>:
    1080:	ff 25 42 30 20 00    	jmpq   *0x203042(%rip)        # 2040c8 <cuserid@GLIBC_2.2.5>
    1086:	68 16 00 00 00       	pushq  $0x16
    108b:	e9 80 fe ff ff       	jmpq   f10 <.plt>

0000000000001090 <fopen@plt>:
    1090:	ff 25 3a 30 20 00    	jmpq   *0x20303a(%rip)        # 2040d0 <fopen@GLIBC_2.2.5>
    1096:	68 17 00 00 00       	pushq  $0x17
    109b:	e9 70 fe ff ff       	jmpq   f10 <.plt>

00000000000010a0 <strcat@plt>:
    10a0:	ff 25 32 30 20 00    	jmpq   *0x203032(%rip)        # 2040d8 <strcat@GLIBC_2.2.5>
    10a6:	68 18 00 00 00       	pushq  $0x18
    10ab:	e9 60 fe ff ff       	jmpq   f10 <.plt>

00000000000010b0 <sprintf@plt>:
    10b0:	ff 25 2a 30 20 00    	jmpq   *0x20302a(%rip)        # 2040e0 <sprintf@GLIBC_2.2.5>
    10b6:	68 19 00 00 00       	pushq  $0x19
    10bb:	e9 50 fe ff ff       	jmpq   f10 <.plt>

00000000000010c0 <exit@plt>:
    10c0:	ff 25 22 30 20 00    	jmpq   *0x203022(%rip)        # 2040e8 <exit@GLIBC_2.2.5>
    10c6:	68 1a 00 00 00       	pushq  $0x1a
    10cb:	e9 40 fe ff ff       	jmpq   f10 <.plt>

00000000000010d0 <connect@plt>:
    10d0:	ff 25 1a 30 20 00    	jmpq   *0x20301a(%rip)        # 2040f0 <connect@GLIBC_2.2.5>
    10d6:	68 1b 00 00 00       	pushq  $0x1b
    10db:	e9 30 fe ff ff       	jmpq   f10 <.plt>

00000000000010e0 <fwrite@plt>:
    10e0:	ff 25 12 30 20 00    	jmpq   *0x203012(%rip)        # 2040f8 <fwrite@GLIBC_2.2.5>
    10e6:	68 1c 00 00 00       	pushq  $0x1c
    10eb:	e9 20 fe ff ff       	jmpq   f10 <.plt>

00000000000010f0 <sleep@plt>:
    10f0:	ff 25 0a 30 20 00    	jmpq   *0x20300a(%rip)        # 204100 <sleep@GLIBC_2.2.5>
    10f6:	68 1d 00 00 00       	pushq  $0x1d
    10fb:	e9 10 fe ff ff       	jmpq   f10 <.plt>

0000000000001100 <__ctype_b_loc@plt>:
    1100:	ff 25 02 30 20 00    	jmpq   *0x203002(%rip)        # 204108 <__ctype_b_loc@GLIBC_2.3>
    1106:	68 1e 00 00 00       	pushq  $0x1e
    110b:	e9 00 fe ff ff       	jmpq   f10 <.plt>

0000000000001110 <socket@plt>:
    1110:	ff 25 fa 2f 20 00    	jmpq   *0x202ffa(%rip)        # 204110 <socket@GLIBC_2.2.5>
    1116:	68 1f 00 00 00       	pushq  $0x1f
    111b:	e9 f0 fd ff ff       	jmpq   f10 <.plt>

Disassembly of section .plt.got:

0000000000001120 <__cxa_finalize@plt>:
    1120:	ff 25 d2 2e 20 00    	jmpq   *0x202ed2(%rip)        # 203ff8 <__cxa_finalize@GLIBC_2.2.5>
    1126:	66 90                	xchg   %ax,%ax

Disassembly of section .text:

0000000000001130 <_start>:
    1130:	31 ed                	xor    %ebp,%ebp
    1132:	49 89 d1             	mov    %rdx,%r9
    1135:	5e                   	pop    %rsi
    1136:	48 89 e2             	mov    %rsp,%rdx
    1139:	48 83 e4 f0          	and    $0xfffffffffffffff0,%rsp
    113d:	50                   	push   %rax
    113e:	54                   	push   %rsp
    113f:	4c 8d 05 da 10 00 00 	lea    0x10da(%rip),%r8        # 2220 <__libc_csu_fini>
    1146:	48 8d 0d 63 10 00 00 	lea    0x1063(%rip),%rcx        # 21b0 <__libc_csu_init>
    114d:	48 8d 3d 0c 01 00 00 	lea    0x10c(%rip),%rdi        # 1260 <main>
    1154:	ff 15 7e 2e 20 00    	callq  *0x202e7e(%rip)        # 203fd8 <__libc_start_main@GLIBC_2.2.5>
    115a:	f4                   	hlt    
    115b:	0f 1f 44 00 00       	nopl   0x0(%rax,%rax,1)

0000000000001160 <deregister_tm_clones>:
    1160:	48 8d 3d 79 36 20 00 	lea    0x203679(%rip),%rdi        # 2047e0 <stdout@@GLIBC_2.2.5>
    1167:	48 8d 05 79 36 20 00 	lea    0x203679(%rip),%rax        # 2047e7 <__TMC_END__+0x7>
    116e:	55                   	push   %rbp
    116f:	48 29 f8             	sub    %rdi,%rax
    1172:	48 89 e5             	mov    %rsp,%rbp
    1175:	48 83 f8 0e          	cmp    $0xe,%rax
    1179:	76 15                	jbe    1190 <deregister_tm_clones+0x30>
    117b:	48 8b 05 4e 2e 20 00 	mov    0x202e4e(%rip),%rax        # 203fd0 <_ITM_deregisterTMCloneTable>
    1182:	48 85 c0             	test   %rax,%rax
    1185:	74 09                	je     1190 <deregister_tm_clones+0x30>
    1187:	5d                   	pop    %rbp
    1188:	ff e0                	jmpq   *%rax
    118a:	66 0f 1f 44 00 00    	nopw   0x0(%rax,%rax,1)
    1190:	5d                   	pop    %rbp
    1191:	c3                   	retq   
    1192:	0f 1f 40 00          	nopl   0x0(%rax)
    1196:	66 2e 0f 1f 84 00 00 	nopw   %cs:0x0(%rax,%rax,1)
    119d:	00 00 00 

00000000000011a0 <register_tm_clones>:
    11a0:	48 8d 3d 39 36 20 00 	lea    0x203639(%rip),%rdi        # 2047e0 <stdout@@GLIBC_2.2.5>
    11a7:	48 8d 35 32 36 20 00 	lea    0x203632(%rip),%rsi        # 2047e0 <stdout@@GLIBC_2.2.5>
    11ae:	55                   	push   %rbp
    11af:	48 29 fe             	sub    %rdi,%rsi
    11b2:	48 89 e5             	mov    %rsp,%rbp
    11b5:	48 c1 fe 03          	sar    $0x3,%rsi
    11b9:	48 89 f0             	mov    %rsi,%rax
    11bc:	48 c1 e8 3f          	shr    $0x3f,%rax
    11c0:	48 01 c6             	add    %rax,%rsi
    11c3:	48 d1 fe             	sar    %rsi
    11c6:	74 18                	je     11e0 <register_tm_clones+0x40>
    11c8:	48 8b 05 21 2e 20 00 	mov    0x202e21(%rip),%rax        # 203ff0 <_ITM_registerTMCloneTable>
    11cf:	48 85 c0             	test   %rax,%rax
    11d2:	74 0c                	je     11e0 <register_tm_clones+0x40>
    11d4:	5d                   	pop    %rbp
    11d5:	ff e0                	jmpq   *%rax
    11d7:	66 0f 1f 84 00 00 00 	nopw   0x0(%rax,%rax,1)
    11de:	00 00 
    11e0:	5d                   	pop    %rbp
    11e1:	c3                   	retq   
    11e2:	0f 1f 40 00          	nopl   0x0(%rax)
    11e6:	66 2e 0f 1f 84 00 00 	nopw   %cs:0x0(%rax,%rax,1)
    11ed:	00 00 00 

00000000000011f0 <__do_global_dtors_aux>:
    11f0:	80 3d 01 36 20 00 00 	cmpb   $0x0,0x203601(%rip)        # 2047f8 <completed.6972>
    11f7:	75 27                	jne    1220 <__do_global_dtors_aux+0x30>
    11f9:	48 83 3d f7 2d 20 00 	cmpq   $0x0,0x202df7(%rip)        # 203ff8 <__cxa_finalize@GLIBC_2.2.5>
    1200:	00 
    1201:	55                   	push   %rbp
    1202:	48 89 e5             	mov    %rsp,%rbp
    1205:	74 0c                	je     1213 <__do_global_dtors_aux+0x23>
    1207:	48 8b 3d 1a 2f 20 00 	mov    0x202f1a(%rip),%rdi        # 204128 <__dso_handle>
    120e:	e8 0d ff ff ff       	callq  1120 <__cxa_finalize@plt>
    1213:	e8 48 ff ff ff       	callq  1160 <deregister_tm_clones>
    1218:	5d                   	pop    %rbp
    1219:	c6 05 d8 35 20 00 01 	movb   $0x1,0x2035d8(%rip)        # 2047f8 <completed.6972>
    1220:	f3 c3                	repz retq 
    1222:	0f 1f 40 00          	nopl   0x0(%rax)
    1226:	66 2e 0f 1f 84 00 00 	nopw   %cs:0x0(%rax,%rax,1)
    122d:	00 00 00 

0000000000001230 <frame_dummy>:
    1230:	48 8d 3d b1 2b 20 00 	lea    0x202bb1(%rip),%rdi        # 203de8 <__JCR_END__>
    1237:	48 83 3f 00          	cmpq   $0x0,(%rdi)
    123b:	75 0b                	jne    1248 <frame_dummy+0x18>
    123d:	e9 5e ff ff ff       	jmpq   11a0 <register_tm_clones>
    1242:	66 0f 1f 44 00 00    	nopw   0x0(%rax,%rax,1)
    1248:	48 8b 05 99 2d 20 00 	mov    0x202d99(%rip),%rax        # 203fe8 <_Jv_RegisterClasses>
    124f:	48 85 c0             	test   %rax,%rax
    1252:	74 e9                	je     123d <frame_dummy+0xd>
    1254:	55                   	push   %rbp
    1255:	48 89 e5             	mov    %rsp,%rbp
    1258:	ff d0                	callq  *%rax
    125a:	5d                   	pop    %rbp
    125b:	e9 40 ff ff ff       	jmpq   11a0 <register_tm_clones>

0000000000001260 <main>:
    1260:	53                   	push   %rbx
    1261:	83 ff 01             	cmp    $0x1,%edi
    1264:	0f 84 f8 00 00 00    	je     1362 <main+0x102>
    126a:	48 89 f3             	mov    %rsi,%rbx
    126d:	83 ff 02             	cmp    $0x2,%edi
    1270:	0f 85 1c 01 00 00    	jne    1392 <main+0x132>
    1276:	48 8b 7e 08          	mov    0x8(%rsi),%rdi
    127a:	48 8d 35 f9 13 00 00 	lea    0x13f9(%rip),%rsi        # 267a <array.3089+0x25a>
    1281:	e8 0a fe ff ff       	callq  1090 <fopen@plt>
    1286:	48 89 05 73 35 20 00 	mov    %rax,0x203573(%rip)        # 204800 <infile>
    128d:	48 85 c0             	test   %rax,%rax
    1290:	0f 84 df 00 00 00    	je     1375 <main+0x115>
    1296:	e8 15 06 00 00       	callq  18b0 <initialize_bomb>
    129b:	48 8d 3d 26 10 00 00 	lea    0x1026(%rip),%rdi        # 22c8 <_IO_stdin_used+0x88>
    12a2:	e8 a9 fc ff ff       	callq  f50 <puts@plt>
    12a7:	48 8d 3d 5a 10 00 00 	lea    0x105a(%rip),%rdi        # 2308 <_IO_stdin_used+0xc8>
    12ae:	e8 9d fc ff ff       	callq  f50 <puts@plt>
    12b3:	e8 53 0d 00 00       	callq  200b <read_line>
    12b8:	48 89 c7             	mov    %rax,%rdi
    12bb:	e8 f0 00 00 00       	callq  13b0 <phase_1>
    12c0:	e8 47 0e 00 00       	callq  210c <phase_defused>
    12c5:	48 8d 3d 6c 10 00 00 	lea    0x106c(%rip),%rdi        # 2338 <_IO_stdin_used+0xf8>
    12cc:	e8 7f fc ff ff       	callq  f50 <puts@plt>
    12d1:	e8 35 0d 00 00       	callq  200b <read_line>
    12d6:	48 89 c7             	mov    %rax,%rdi
    12d9:	e8 f2 00 00 00       	callq  13d0 <phase_2>
    12de:	e8 29 0e 00 00       	callq  210c <phase_defused>
    12e3:	48 8d 3d 91 0f 00 00 	lea    0xf91(%rip),%rdi        # 227b <_IO_stdin_used+0x3b>
    12ea:	e8 61 fc ff ff       	callq  f50 <puts@plt>
    12ef:	e8 17 0d 00 00       	callq  200b <read_line>
    12f4:	48 89 c7             	mov    %rax,%rdi
    12f7:	e8 2b 01 00 00       	callq  1427 <phase_3>
    12fc:	e8 0b 0e 00 00       	callq  210c <phase_defused>
    1301:	48 8d 3d 91 0f 00 00 	lea    0xf91(%rip),%rdi        # 2299 <_IO_stdin_used+0x59>
    1308:	e8 43 fc ff ff       	callq  f50 <puts@plt>
    130d:	e8 f9 0c 00 00       	callq  200b <read_line>
    1312:	48 89 c7             	mov    %rax,%rdi
    1315:	e8 ff 01 00 00       	callq  1519 <phase_4>
    131a:	e8 ed 0d 00 00       	callq  210c <phase_defused>
    131f:	48 8d 3d 42 10 00 00 	lea    0x1042(%rip),%rdi        # 2368 <_IO_stdin_used+0x128>
    1326:	e8 25 fc ff ff       	callq  f50 <puts@plt>
    132b:	e8 db 0c 00 00       	callq  200b <read_line>
    1330:	48 89 c7             	mov    %rax,%rdi
    1333:	e8 28 02 00 00       	callq  1560 <phase_5>
    1338:	e8 cf 0d 00 00       	callq  210c <phase_defused>
    133d:	48 8d 3d 64 0f 00 00 	lea    0xf64(%rip),%rdi        # 22a8 <_IO_stdin_used+0x68>
    1344:	e8 07 fc ff ff       	callq  f50 <puts@plt>
    1349:	e8 bd 0c 00 00       	callq  200b <read_line>
    134e:	48 89 c7             	mov    %rax,%rdi
    1351:	e8 b6 02 00 00       	callq  160c <phase_6>
    1356:	e8 b1 0d 00 00       	callq  210c <phase_defused>
    135b:	b8 00 00 00 00       	mov    $0x0,%eax
    1360:	5b                   	pop    %rbx
    1361:	c3                   	retq   
    1362:	48 8b 05 87 34 20 00 	mov    0x203487(%rip),%rax        # 2047f0 <stdin@@GLIBC_2.2.5>
    1369:	48 89 05 90 34 20 00 	mov    %rax,0x203490(%rip)        # 204800 <infile>
    1370:	e9 21 ff ff ff       	jmpq   1296 <main+0x36>
    1375:	48 8b 53 08          	mov    0x8(%rbx),%rdx
    1379:	48 8b 33             	mov    (%rbx),%rsi
    137c:	48 8d 3d c1 0e 00 00 	lea    0xec1(%rip),%rdi        # 2244 <_IO_stdin_used+0x4>
    1383:	e8 08 fc ff ff       	callq  f90 <printf@plt>
    1388:	bf 08 00 00 00       	mov    $0x8,%edi
    138d:	e8 2e fd ff ff       	callq  10c0 <exit@plt>
    1392:	48 8b 36             	mov    (%rsi),%rsi
    1395:	48 8d 3d c5 0e 00 00 	lea    0xec5(%rip),%rdi        # 2261 <_IO_stdin_used+0x21>
    139c:	b8 00 00 00 00       	mov    $0x0,%eax
    13a1:	e8 ea fb ff ff       	callq  f90 <printf@plt>
    13a6:	bf 08 00 00 00       	mov    $0x8,%edi
    13ab:	e8 10 fd ff ff       	callq  10c0 <exit@plt>

00000000000013b0 <phase_1>:
    13b0:	48 83 ec 08          	sub    $0x8,%rsp
    13b4:	48 8d 35 d5 0f 00 00 	lea    0xfd5(%rip),%rsi        # 2390 <_IO_stdin_used+0x150>
    13bb:	e8 be 03 00 00       	callq  177e <strings_not_equal>
    13c0:	85 c0                	test   %eax,%eax
    13c2:	75 05                	jne    13c9 <phase_1+0x19>
    13c4:	48 83 c4 08          	add    $0x8,%rsp
    13c8:	c3                   	retq   
    13c9:	e8 c0 0b 00 00       	callq  1f8e <explode_bomb>
    13ce:	eb f4                	jmp    13c4 <phase_1+0x14>

00000000000013d0 <phase_2>:
    13d0:	41 55                	push   %r13
    13d2:	41 54                	push   %r12
    13d4:	55                   	push   %rbp
    13d5:	53                   	push   %rbx
    13d6:	48 83 ec 28          	sub    $0x28,%rsp
    13da:	49 89 e4             	mov    %rsp,%r12
    13dd:	48 89 e6             	mov    %rsp,%rsi
    13e0:	e8 e5 0b 00 00       	callq  1fca <read_six_numbers>
    13e5:	48 89 e3             	mov    %rsp,%rbx
    13e8:	49 83 c4 0c          	add    $0xc,%r12
    13ec:	bd 00 00 00 00       	mov    $0x0,%ebp
    13f1:	eb 0d                	jmp    1400 <phase_2+0x30>
    13f3:	41 03 6d 00          	add    0x0(%r13),%ebp
    13f7:	48 83 c3 04          	add    $0x4,%rbx
    13fb:	4c 39 e3             	cmp    %r12,%rbx
    13fe:	74 11                	je     1411 <phase_2+0x41>
    1400:	49 89 dd             	mov    %rbx,%r13
    1403:	8b 43 0c             	mov    0xc(%rbx),%eax
    1406:	39 03                	cmp    %eax,(%rbx)
    1408:	74 e9                	je     13f3 <phase_2+0x23>
    140a:	e8 7f 0b 00 00       	callq  1f8e <explode_bomb>
    140f:	eb e2                	jmp    13f3 <phase_2+0x23>
    1411:	85 ed                	test   %ebp,%ebp
    1413:	74 0b                	je     1420 <phase_2+0x50>
    1415:	48 83 c4 28          	add    $0x28,%rsp
    1419:	5b                   	pop    %rbx
    141a:	5d                   	pop    %rbp
    141b:	41 5c                	pop    %r12
    141d:	41 5d                	pop    %r13
    141f:	c3                   	retq   
    1420:	e8 69 0b 00 00       	callq  1f8e <explode_bomb>
    1425:	eb ee                	jmp    1415 <phase_2+0x45>

0000000000001427 <phase_3>:
    1427:	48 83 ec 18          	sub    $0x18,%rsp
    142b:	48 8d 4c 24 08       	lea    0x8(%rsp),%rcx
    1430:	48 8d 54 24 0c       	lea    0xc(%rsp),%rdx
    1435:	48 8d 35 47 13 00 00 	lea    0x1347(%rip),%rsi        # 2783 <array.3089+0x363>
    143c:	b8 00 00 00 00       	mov    $0x0,%eax
    1441:	e8 1a fc ff ff       	callq  1060 <__isoc99_sscanf@plt>
    1446:	83 f8 01             	cmp    $0x1,%eax
    1449:	7e 1f                	jle    146a <phase_3+0x43>
    144b:	83 7c 24 0c 07       	cmpl   $0x7,0xc(%rsp)
    1450:	0f 87 89 00 00 00    	ja     14df <phase_3+0xb8>
    1456:	8b 44 24 0c          	mov    0xc(%rsp),%eax
    145a:	48 8d 15 9f 0f 00 00 	lea    0xf9f(%rip),%rdx        # 2400 <_IO_stdin_used+0x1c0>
    1461:	48 63 04 82          	movslq (%rdx,%rax,4),%rax
    1465:	48 01 d0             	add    %rdx,%rax
    1468:	ff e0                	jmpq   *%rax
    146a:	e8 1f 0b 00 00       	callq  1f8e <explode_bomb>
    146f:	eb da                	jmp    144b <phase_3+0x24>
    1471:	b8 80 02 00 00       	mov    $0x280,%eax
    1476:	eb 05                	jmp    147d <phase_3+0x56>
    1478:	b8 00 00 00 00       	mov    $0x0,%eax
    147d:	2d 3c 02 00 00       	sub    $0x23c,%eax
    1482:	05 c5 02 00 00       	add    $0x2c5,%eax
    1487:	2d 93 03 00 00       	sub    $0x393,%eax
    148c:	83 c0 4b             	add    $0x4b,%eax
    148f:	2d 4e 01 00 00       	sub    $0x14e,%eax
    1494:	05 4e 01 00 00       	add    $0x14e,%eax
    1499:	2d 0d 01 00 00       	sub    $0x10d,%eax
    149e:	83 7c 24 0c 05       	cmpl   $0x5,0xc(%rsp)
    14a3:	7f 06                	jg     14ab <phase_3+0x84>
    14a5:	3b 44 24 08          	cmp    0x8(%rsp),%eax
    14a9:	74 05                	je     14b0 <phase_3+0x89>
    14ab:	e8 de 0a 00 00       	callq  1f8e <explode_bomb>
    14b0:	48 83 c4 18          	add    $0x18,%rsp
    14b4:	c3                   	retq   
    14b5:	b8 00 00 00 00       	mov    $0x0,%eax
    14ba:	eb c6                	jmp    1482 <phase_3+0x5b>
    14bc:	b8 00 00 00 00       	mov    $0x0,%eax
    14c1:	eb c4                	jmp    1487 <phase_3+0x60>
    14c3:	b8 00 00 00 00       	mov    $0x0,%eax
    14c8:	eb c2                	jmp    148c <phase_3+0x65>
    14ca:	b8 00 00 00 00       	mov    $0x0,%eax
    14cf:	eb be                	jmp    148f <phase_3+0x68>
    14d1:	b8 00 00 00 00       	mov    $0x0,%eax
    14d6:	eb bc                	jmp    1494 <phase_3+0x6d>
    14d8:	b8 00 00 00 00       	mov    $0x0,%eax
    14dd:	eb ba                	jmp    1499 <phase_3+0x72>
    14df:	e8 aa 0a 00 00       	callq  1f8e <explode_bomb>
    14e4:	b8 00 00 00 00       	mov    $0x0,%eax
    14e9:	eb b3                	jmp    149e <phase_3+0x77>

00000000000014eb <func4>:
    14eb:	b8 01 00 00 00       	mov    $0x1,%eax
    14f0:	83 ff 01             	cmp    $0x1,%edi
    14f3:	7e 22                	jle    1517 <func4+0x2c>
    14f5:	55                   	push   %rbp
    14f6:	53                   	push   %rbx
    14f7:	48 83 ec 08          	sub    $0x8,%rsp
    14fb:	89 fb                	mov    %edi,%ebx
    14fd:	8d 7f ff             	lea    -0x1(%rdi),%edi
    1500:	e8 e6 ff ff ff       	callq  14eb <func4>
    1505:	89 c5                	mov    %eax,%ebp
    1507:	8d 7b fe             	lea    -0x2(%rbx),%edi
    150a:	e8 dc ff ff ff       	callq  14eb <func4>
    150f:	01 e8                	add    %ebp,%eax
    1511:	48 83 c4 08          	add    $0x8,%rsp
    1515:	5b                   	pop    %rbx
    1516:	5d                   	pop    %rbp
    1517:	f3 c3                	repz retq 

0000000000001519 <phase_4>:
    1519:	48 83 ec 18          	sub    $0x18,%rsp
    151d:	48 8d 54 24 0c       	lea    0xc(%rsp),%rdx
    1522:	48 8d 35 5d 12 00 00 	lea    0x125d(%rip),%rsi        # 2786 <array.3089+0x366>
    1529:	b8 00 00 00 00       	mov    $0x0,%eax
    152e:	e8 2d fb ff ff       	callq  1060 <__isoc99_sscanf@plt>
    1533:	83 f8 01             	cmp    $0x1,%eax
    1536:	74 1f                	je     1557 <phase_4+0x3e>
    1538:	e8 51 0a 00 00       	callq  1f8e <explode_bomb>
    153d:	8b 7c 24 0c          	mov    0xc(%rsp),%edi
    1541:	e8 a5 ff ff ff       	callq  14eb <func4>
    1546:	3d 6d 1a 00 00       	cmp    $0x1a6d,%eax
    154b:	74 05                	je     1552 <phase_4+0x39>
    154d:	e8 3c 0a 00 00       	callq  1f8e <explode_bomb>
    1552:	48 83 c4 18          	add    $0x18,%rsp
    1556:	c3                   	retq   
    1557:	83 7c 24 0c 00       	cmpl   $0x0,0xc(%rsp)
    155c:	7f df                	jg     153d <phase_4+0x24>
    155e:	eb d8                	jmp    1538 <phase_4+0x1f>

0000000000001560 <phase_5>:
    1560:	53                   	push   %rbx
    1561:	48 89 fb             	mov    %rdi,%rbx
    1564:	e8 f7 01 00 00       	callq  1760 <string_length>
    1569:	83 f8 06             	cmp    $0x6,%eax
    156c:	74 05                	je     1573 <phase_5+0x13>
    156e:	e8 1b 0a 00 00       	callq  1f8e <explode_bomb>
    1573:	48 89 d8             	mov    %rbx,%rax
    1576:	48 8d 7b 06          	lea    0x6(%rbx),%rdi
    157a:	b9 00 00 00 00       	mov    $0x0,%ecx
    157f:	48 8d 35 9a 0e 00 00 	lea    0xe9a(%rip),%rsi        # 2420 <array.3089>
    1586:	0f b6 10             	movzbl (%rax),%edx
    1589:	83 e2 0f             	and    $0xf,%edx
    158c:	03 0c 96             	add    (%rsi,%rdx,4),%ecx
    158f:	48 83 c0 01          	add    $0x1,%rax
    1593:	48 39 f8             	cmp    %rdi,%rax
    1596:	75 ee                	jne    1586 <phase_5+0x26>
    1598:	83 f9 2d             	cmp    $0x2d,%ecx
    159b:	74 05                	je     15a2 <phase_5+0x42>
    159d:	e8 ec 09 00 00       	callq  1f8e <explode_bomb>
    15a2:	5b                   	pop    %rbx
    15a3:	c3                   	retq   

00000000000015a4 <fun6>:
    15a4:	48 89 f8             	mov    %rdi,%rax
    15a7:	4c 8b 47 08          	mov    0x8(%rdi),%r8
    15ab:	48 c7 47 08 00 00 00 	movq   $0x0,0x8(%rdi)
    15b2:	00 
    15b3:	48 89 fa             	mov    %rdi,%rdx
    15b6:	4d 85 c0             	test   %r8,%r8
    15b9:	75 2e                	jne    15e9 <fun6+0x45>
    15bb:	f3 c3                	repz retq 
    15bd:	48 89 d1             	mov    %rdx,%rcx
    15c0:	48 8b 51 08          	mov    0x8(%rcx),%rdx
    15c4:	48 85 d2             	test   %rdx,%rdx
    15c7:	74 04                	je     15cd <fun6+0x29>
    15c9:	39 32                	cmp    %esi,(%rdx)
    15cb:	7f f0                	jg     15bd <fun6+0x19>
    15cd:	48 39 d1             	cmp    %rdx,%rcx
    15d0:	74 33                	je     1605 <fun6+0x61>
    15d2:	4c 89 41 08          	mov    %r8,0x8(%rcx)
    15d6:	49 8b 48 08          	mov    0x8(%r8),%rcx
    15da:	49 89 50 08          	mov    %rdx,0x8(%r8)
    15de:	48 89 c2             	mov    %rax,%rdx
    15e1:	49 89 c8             	mov    %rcx,%r8
    15e4:	48 85 c9             	test   %rcx,%rcx
    15e7:	74 21                	je     160a <fun6+0x66>
    15e9:	48 85 d2             	test   %rdx,%rdx
    15ec:	74 12                	je     1600 <fun6+0x5c>
    15ee:	41 8b 30             	mov    (%r8),%esi
    15f1:	48 89 c1             	mov    %rax,%rcx
    15f4:	39 32                	cmp    %esi,(%rdx)
    15f6:	7f c8                	jg     15c0 <fun6+0x1c>
    15f8:	48 89 c2             	mov    %rax,%rdx
    15fb:	4c 89 c0             	mov    %r8,%rax
    15fe:	eb d6                	jmp    15d6 <fun6+0x32>
    1600:	48 89 c1             	mov    %rax,%rcx
    1603:	eb c8                	jmp    15cd <fun6+0x29>
    1605:	4c 89 c0             	mov    %r8,%rax
    1608:	eb cc                	jmp    15d6 <fun6+0x32>
    160a:	f3 c3                	repz retq 

000000000000160c <phase_6>:
    160c:	48 83 ec 08          	sub    $0x8,%rsp
    1610:	ba 0a 00 00 00       	mov    $0xa,%edx
    1615:	be 00 00 00 00       	mov    $0x0,%esi
    161a:	e8 11 fa ff ff       	callq  1030 <strtol@plt>
    161f:	89 05 2b 31 20 00    	mov    %eax,0x20312b(%rip)        # 204750 <node0>
    1625:	48 8d 3d 24 31 20 00 	lea    0x203124(%rip),%rdi        # 204750 <node0>
    162c:	e8 73 ff ff ff       	callq  15a4 <fun6>
    1631:	ba 08 00 00 00       	mov    $0x8,%edx
    1636:	48 8b 40 08          	mov    0x8(%rax),%rax
    163a:	83 ea 01             	sub    $0x1,%edx
    163d:	75 f7                	jne    1636 <phase_6+0x2a>
    163f:	8b 0d 0b 31 20 00    	mov    0x20310b(%rip),%ecx        # 204750 <node0>
    1645:	39 08                	cmp    %ecx,(%rax)
    1647:	74 05                	je     164e <phase_6+0x42>
    1649:	e8 40 09 00 00       	callq  1f8e <explode_bomb>
    164e:	48 83 c4 08          	add    $0x8,%rsp
    1652:	c3                   	retq   

0000000000001653 <fun7>:
    1653:	48 85 ff             	test   %rdi,%rdi
    1656:	74 32                	je     168a <fun7+0x37>
    1658:	48 83 ec 08          	sub    $0x8,%rsp
    165c:	8b 17                	mov    (%rdi),%edx
    165e:	39 f2                	cmp    %esi,%edx
    1660:	7f 1b                	jg     167d <fun7+0x2a>
    1662:	b8 00 00 00 00       	mov    $0x0,%eax
    1667:	39 f2                	cmp    %esi,%edx
    1669:	74 0d                	je     1678 <fun7+0x25>
    166b:	48 8b 7f 10          	mov    0x10(%rdi),%rdi
    166f:	e8 df ff ff ff       	callq  1653 <fun7>
    1674:	8d 44 00 01          	lea    0x1(%rax,%rax,1),%eax
    1678:	48 83 c4 08          	add    $0x8,%rsp
    167c:	c3                   	retq   
    167d:	48 8b 7f 08          	mov    0x8(%rdi),%rdi
    1681:	e8 cd ff ff ff       	callq  1653 <fun7>
    1686:	01 c0                	add    %eax,%eax
    1688:	eb ee                	jmp    1678 <fun7+0x25>
    168a:	b8 ff ff ff ff       	mov    $0xffffffff,%eax
    168f:	c3                   	retq   

0000000000001690 <secret_phase>:
    1690:	53                   	push   %rbx
    1691:	e8 75 09 00 00       	callq  200b <read_line>
    1696:	ba 0a 00 00 00       	mov    $0xa,%edx
    169b:	be 00 00 00 00       	mov    $0x0,%esi
    16a0:	48 89 c7             	mov    %rax,%rdi
    16a3:	e8 88 f9 ff ff       	callq  1030 <strtol@plt>
    16a8:	48 89 c3             	mov    %rax,%rbx
    16ab:	8d 40 ff             	lea    -0x1(%rax),%eax
    16ae:	3d e8 03 00 00       	cmp    $0x3e8,%eax
    16b3:	77 2b                	ja     16e0 <secret_phase+0x50>
    16b5:	89 de                	mov    %ebx,%esi
    16b7:	48 8d 3d b2 2f 20 00 	lea    0x202fb2(%rip),%rdi        # 204670 <n1>
    16be:	e8 90 ff ff ff       	callq  1653 <fun7>
    16c3:	83 f8 02             	cmp    $0x2,%eax
    16c6:	74 05                	je     16cd <secret_phase+0x3d>
    16c8:	e8 c1 08 00 00       	callq  1f8e <explode_bomb>
    16cd:	48 8d 3d fc 0c 00 00 	lea    0xcfc(%rip),%rdi        # 23d0 <_IO_stdin_used+0x190>
    16d4:	e8 77 f8 ff ff       	callq  f50 <puts@plt>
    16d9:	e8 2e 0a 00 00       	callq  210c <phase_defused>
    16de:	5b                   	pop    %rbx
    16df:	c3                   	retq   
    16e0:	e8 a9 08 00 00       	callq  1f8e <explode_bomb>
    16e5:	eb ce                	jmp    16b5 <secret_phase+0x25>

00000000000016e7 <sig_handler>:
    16e7:	48 83 ec 08          	sub    $0x8,%rsp
    16eb:	48 8d 3d 6e 0d 00 00 	lea    0xd6e(%rip),%rdi        # 2460 <array.3089+0x40>
    16f2:	e8 59 f8 ff ff       	callq  f50 <puts@plt>
    16f7:	bf 03 00 00 00       	mov    $0x3,%edi
    16fc:	e8 ef f9 ff ff       	callq  10f0 <sleep@plt>
    1701:	48 8d 3d 90 0e 00 00 	lea    0xe90(%rip),%rdi        # 2598 <array.3089+0x178>
    1708:	b8 00 00 00 00       	mov    $0x0,%eax
    170d:	e8 7e f8 ff ff       	callq  f90 <printf@plt>
    1712:	48 8b 3d c7 30 20 00 	mov    0x2030c7(%rip),%rdi        # 2047e0 <stdout@@GLIBC_2.2.5>
    1719:	e8 32 f9 ff ff       	callq  1050 <fflush@plt>
    171e:	bf 01 00 00 00       	mov    $0x1,%edi
    1723:	e8 c8 f9 ff ff       	callq  10f0 <sleep@plt>
    1728:	48 8d 3d 71 0e 00 00 	lea    0xe71(%rip),%rdi        # 25a0 <array.3089+0x180>
    172f:	e8 1c f8 ff ff       	callq  f50 <puts@plt>
    1734:	bf 10 00 00 00       	mov    $0x10,%edi
    1739:	e8 82 f9 ff ff       	callq  10c0 <exit@plt>

000000000000173e <invalid_phase>:
    173e:	48 83 ec 08          	sub    $0x8,%rsp
    1742:	48 89 fe             	mov    %rdi,%rsi
    1745:	48 8d 3d 5c 0e 00 00 	lea    0xe5c(%rip),%rdi        # 25a8 <array.3089+0x188>
    174c:	b8 00 00 00 00       	mov    $0x0,%eax
    1751:	e8 3a f8 ff ff       	callq  f90 <printf@plt>
    1756:	bf 08 00 00 00       	mov    $0x8,%edi
    175b:	e8 60 f9 ff ff       	callq  10c0 <exit@plt>

0000000000001760 <string_length>:
    1760:	80 3f 00             	cmpb   $0x0,(%rdi)
    1763:	74 13                	je     1778 <string_length+0x18>
    1765:	b8 00 00 00 00       	mov    $0x0,%eax
    176a:	48 83 c7 01          	add    $0x1,%rdi
    176e:	83 c0 01             	add    $0x1,%eax
    1771:	80 3f 00             	cmpb   $0x0,(%rdi)
    1774:	75 f4                	jne    176a <string_length+0xa>
    1776:	f3 c3                	repz retq 
    1778:	b8 00 00 00 00       	mov    $0x0,%eax
    177d:	c3                   	retq   

000000000000177e <strings_not_equal>:
    177e:	41 54                	push   %r12
    1780:	55                   	push   %rbp
    1781:	53                   	push   %rbx
    1782:	48 89 fb             	mov    %rdi,%rbx
    1785:	48 89 f5             	mov    %rsi,%rbp
    1788:	e8 d3 ff ff ff       	callq  1760 <string_length>
    178d:	41 89 c4             	mov    %eax,%r12d
    1790:	48 89 ef             	mov    %rbp,%rdi
    1793:	e8 c8 ff ff ff       	callq  1760 <string_length>
    1798:	ba 01 00 00 00       	mov    $0x1,%edx
    179d:	41 39 c4             	cmp    %eax,%r12d
    17a0:	74 07                	je     17a9 <strings_not_equal+0x2b>
    17a2:	89 d0                	mov    %edx,%eax
    17a4:	5b                   	pop    %rbx
    17a5:	5d                   	pop    %rbp
    17a6:	41 5c                	pop    %r12
    17a8:	c3                   	retq   
    17a9:	0f b6 03             	movzbl (%rbx),%eax
    17ac:	84 c0                	test   %al,%al
    17ae:	74 27                	je     17d7 <strings_not_equal+0x59>
    17b0:	3a 45 00             	cmp    0x0(%rbp),%al
    17b3:	75 29                	jne    17de <strings_not_equal+0x60>
    17b5:	48 83 c3 01          	add    $0x1,%rbx
    17b9:	48 83 c5 01          	add    $0x1,%rbp
    17bd:	0f b6 03             	movzbl (%rbx),%eax
    17c0:	84 c0                	test   %al,%al
    17c2:	74 0c                	je     17d0 <strings_not_equal+0x52>
    17c4:	3a 45 00             	cmp    0x0(%rbp),%al
    17c7:	74 ec                	je     17b5 <strings_not_equal+0x37>
    17c9:	ba 01 00 00 00       	mov    $0x1,%edx
    17ce:	eb d2                	jmp    17a2 <strings_not_equal+0x24>
    17d0:	ba 00 00 00 00       	mov    $0x0,%edx
    17d5:	eb cb                	jmp    17a2 <strings_not_equal+0x24>
    17d7:	ba 00 00 00 00       	mov    $0x0,%edx
    17dc:	eb c4                	jmp    17a2 <strings_not_equal+0x24>
    17de:	ba 01 00 00 00       	mov    $0x1,%edx
    17e3:	eb bd                	jmp    17a2 <strings_not_equal+0x24>

00000000000017e5 <open_clientfd>:
    17e5:	41 54                	push   %r12
    17e7:	55                   	push   %rbp
    17e8:	53                   	push   %rbx
    17e9:	48 83 ec 10          	sub    $0x10,%rsp
    17ed:	49 89 fc             	mov    %rdi,%r12
    17f0:	89 f3                	mov    %esi,%ebx
    17f2:	ba 00 00 00 00       	mov    $0x0,%edx
    17f7:	be 01 00 00 00       	mov    $0x1,%esi
    17fc:	bf 02 00 00 00       	mov    $0x2,%edi
    1801:	e8 0a f9 ff ff       	callq  1110 <socket@plt>
    1806:	85 c0                	test   %eax,%eax
    1808:	78 64                	js     186e <open_clientfd+0x89>
    180a:	89 c5                	mov    %eax,%ebp
    180c:	4c 89 e7             	mov    %r12,%rdi
    180f:	e8 fc f7 ff ff       	callq  1010 <gethostbyname@plt>
    1814:	48 85 c0             	test   %rax,%rax
    1817:	74 6b                	je     1884 <open_clientfd+0x9f>
    1819:	48 c7 04 24 00 00 00 	movq   $0x0,(%rsp)
    1820:	00 
    1821:	48 c7 44 24 08 00 00 	movq   $0x0,0x8(%rsp)
    1828:	00 00 
    182a:	66 c7 04 24 02 00    	movw   $0x2,(%rsp)
    1830:	48 63 50 14          	movslq 0x14(%rax),%rdx
    1834:	48 8d 74 24 04       	lea    0x4(%rsp),%rsi
    1839:	48 8b 40 18          	mov    0x18(%rax),%rax
    183d:	48 8b 38             	mov    (%rax),%rdi
    1840:	e8 2b f8 ff ff       	callq  1070 <bcopy@plt>
    1845:	89 de                	mov    %ebx,%esi
    1847:	66 c1 ce 08          	ror    $0x8,%si
    184b:	66 89 74 24 02       	mov    %si,0x2(%rsp)
    1850:	ba 10 00 00 00       	mov    $0x10,%edx
    1855:	48 89 e6             	mov    %rsp,%rsi
    1858:	89 ef                	mov    %ebp,%edi
    185a:	e8 71 f8 ff ff       	callq  10d0 <connect@plt>
    185f:	85 c0                	test   %eax,%eax
    1861:	78 37                	js     189a <open_clientfd+0xb5>
    1863:	89 e8                	mov    %ebp,%eax
    1865:	48 83 c4 10          	add    $0x10,%rsp
    1869:	5b                   	pop    %rbx
    186a:	5d                   	pop    %rbp
    186b:	41 5c                	pop    %r12
    186d:	c3                   	retq   
    186e:	48 8d 3d 44 0d 00 00 	lea    0xd44(%rip),%rdi        # 25b9 <array.3089+0x199>
    1875:	e8 d6 f6 ff ff       	callq  f50 <puts@plt>
    187a:	bf 08 00 00 00       	mov    $0x8,%edi
    187f:	e8 3c f8 ff ff       	callq  10c0 <exit@plt>
    1884:	48 8d 3d 3c 0d 00 00 	lea    0xd3c(%rip),%rdi        # 25c7 <array.3089+0x1a7>
    188b:	e8 c0 f6 ff ff       	callq  f50 <puts@plt>
    1890:	bf 08 00 00 00       	mov    $0x8,%edi
    1895:	e8 26 f8 ff ff       	callq  10c0 <exit@plt>
    189a:	48 8d 3d 34 0d 00 00 	lea    0xd34(%rip),%rdi        # 25d5 <array.3089+0x1b5>
    18a1:	e8 aa f6 ff ff       	callq  f50 <puts@plt>
    18a6:	bf 08 00 00 00       	mov    $0x8,%edi
    18ab:	e8 10 f8 ff ff       	callq  10c0 <exit@plt>

00000000000018b0 <initialize_bomb>:
    18b0:	48 83 ec 08          	sub    $0x8,%rsp
    18b4:	48 8d 35 2c fe ff ff 	lea    -0x1d4(%rip),%rsi        # 16e7 <sig_handler>
    18bb:	bf 02 00 00 00       	mov    $0x2,%edi
    18c0:	e8 3b f7 ff ff       	callq  1000 <signal@plt>
    18c5:	be 50 00 00 00       	mov    $0x50,%esi
    18ca:	48 8d 3d 12 0d 00 00 	lea    0xd12(%rip),%rdi        # 25e3 <array.3089+0x1c3>
    18d1:	e8 0f ff ff ff       	callq  17e5 <open_clientfd>
    18d6:	89 c7                	mov    %eax,%edi
    18d8:	e8 e3 f6 ff ff       	callq  fc0 <close@plt>
    18dd:	48 83 c4 08          	add    $0x8,%rsp
    18e1:	c3                   	retq   

00000000000018e2 <blank_line>:
    18e2:	55                   	push   %rbp
    18e3:	53                   	push   %rbx
    18e4:	48 83 ec 08          	sub    $0x8,%rsp
    18e8:	48 89 fd             	mov    %rdi,%rbp
    18eb:	0f b6 5d 00          	movzbl 0x0(%rbp),%ebx
    18ef:	84 db                	test   %bl,%bl
    18f1:	74 1e                	je     1911 <blank_line+0x2f>
    18f3:	e8 08 f8 ff ff       	callq  1100 <__ctype_b_loc@plt>
    18f8:	48 83 c5 01          	add    $0x1,%rbp
    18fc:	48 0f be db          	movsbq %bl,%rbx
    1900:	48 8b 00             	mov    (%rax),%rax
    1903:	f6 44 58 01 20       	testb  $0x20,0x1(%rax,%rbx,2)
    1908:	75 e1                	jne    18eb <blank_line+0x9>
    190a:	b8 00 00 00 00       	mov    $0x0,%eax
    190f:	eb 05                	jmp    1916 <blank_line+0x34>
    1911:	b8 01 00 00 00       	mov    $0x1,%eax
    1916:	48 83 c4 08          	add    $0x8,%rsp
    191a:	5b                   	pop    %rbx
    191b:	5d                   	pop    %rbp
    191c:	c3                   	retq   

000000000000191d <skip>:
    191d:	55                   	push   %rbp
    191e:	53                   	push   %rbx
    191f:	48 83 ec 08          	sub    $0x8,%rsp
    1923:	48 8d 2d f6 2e 20 00 	lea    0x202ef6(%rip),%rbp        # 204820 <input_strings>
    192a:	48 63 05 cb 2e 20 00 	movslq 0x202ecb(%rip),%rax        # 2047fc <num_input_strings>
    1931:	48 8d 3c 80          	lea    (%rax,%rax,4),%rdi
    1935:	48 c1 e7 04          	shl    $0x4,%rdi
    1939:	48 01 ef             	add    %rbp,%rdi
    193c:	48 8b 15 bd 2e 20 00 	mov    0x202ebd(%rip),%rdx        # 204800 <infile>
    1943:	be 50 00 00 00       	mov    $0x50,%esi
    1948:	e8 93 f6 ff ff       	callq  fe0 <fgets@plt>
    194d:	48 89 c3             	mov    %rax,%rbx
    1950:	48 85 c0             	test   %rax,%rax
    1953:	74 0c                	je     1961 <skip+0x44>
    1955:	48 89 c7             	mov    %rax,%rdi
    1958:	e8 85 ff ff ff       	callq  18e2 <blank_line>
    195d:	85 c0                	test   %eax,%eax
    195f:	75 c9                	jne    192a <skip+0xd>
    1961:	48 89 d8             	mov    %rbx,%rax
    1964:	48 83 c4 08          	add    $0x8,%rsp
    1968:	5b                   	pop    %rbx
    1969:	5d                   	pop    %rbp
    196a:	c3                   	retq   

000000000000196b <writen>:
    196b:	41 56                	push   %r14
    196d:	41 55                	push   %r13
    196f:	41 54                	push   %r12
    1971:	55                   	push   %rbp
    1972:	53                   	push   %rbx
    1973:	49 89 d5             	mov    %rdx,%r13
    1976:	48 85 d2             	test   %rdx,%rdx
    1979:	74 3b                	je     19b6 <writen+0x4b>
    197b:	41 89 fc             	mov    %edi,%r12d
    197e:	48 89 f5             	mov    %rsi,%rbp
    1981:	48 89 d3             	mov    %rdx,%rbx
    1984:	41 be 00 00 00 00    	mov    $0x0,%r14d
    198a:	eb 08                	jmp    1994 <writen+0x29>
    198c:	48 01 c5             	add    %rax,%rbp
    198f:	48 29 c3             	sub    %rax,%rbx
    1992:	74 22                	je     19b6 <writen+0x4b>
    1994:	48 89 da             	mov    %rbx,%rdx
    1997:	48 89 ee             	mov    %rbp,%rsi
    199a:	44 89 e7             	mov    %r12d,%edi
    199d:	e8 be f5 ff ff       	callq  f60 <write@plt>
    19a2:	48 85 c0             	test   %rax,%rax
    19a5:	7f e5                	jg     198c <writen+0x21>
    19a7:	e8 84 f5 ff ff       	callq  f30 <__errno_location@plt>
    19ac:	83 38 04             	cmpl   $0x4,(%rax)
    19af:	75 11                	jne    19c2 <writen+0x57>
    19b1:	4c 89 f0             	mov    %r14,%rax
    19b4:	eb d6                	jmp    198c <writen+0x21>
    19b6:	4c 89 e8             	mov    %r13,%rax
    19b9:	5b                   	pop    %rbx
    19ba:	5d                   	pop    %rbp
    19bb:	41 5c                	pop    %r12
    19bd:	41 5d                	pop    %r13
    19bf:	41 5e                	pop    %r14
    19c1:	c3                   	retq   
    19c2:	48 c7 c0 ff ff ff ff 	mov    $0xffffffffffffffff,%rax
    19c9:	eb ee                	jmp    19b9 <writen+0x4e>

00000000000019cb <send_msg>:
    19cb:	41 57                	push   %r15
    19cd:	41 56                	push   %r14
    19cf:	41 55                	push   %r13
    19d1:	41 54                	push   %r12
    19d3:	55                   	push   %rbp
    19d4:	53                   	push   %rbx
    19d5:	48 81 ec 68 24 00 00 	sub    $0x2468,%rsp
    19dc:	41 89 fc             	mov    %edi,%r12d
    19df:	ba 00 00 00 00       	mov    $0x0,%edx
    19e4:	be 01 00 00 00       	mov    $0x1,%esi
    19e9:	bf 02 00 00 00       	mov    $0x2,%edi
    19ee:	e8 1d f7 ff ff       	callq  1110 <socket@plt>
    19f3:	41 89 c7             	mov    %eax,%r15d
    19f6:	85 c0                	test   %eax,%eax
    19f8:	0f 88 2a 02 00 00    	js     1c28 <send_msg+0x25d>
    19fe:	48 c7 84 24 50 24 00 	movq   $0x0,0x2450(%rsp)
    1a05:	00 00 00 00 00 
    1a0a:	48 c7 84 24 58 24 00 	movq   $0x0,0x2458(%rsp)
    1a11:	00 00 00 00 00 
    1a16:	66 c7 84 24 50 24 00 	movw   $0x2,0x2450(%rsp)
    1a1d:	00 02 00 
    1a20:	66 c7 84 24 52 24 00 	movw   $0x7ac8,0x2452(%rsp)
    1a27:	00 c8 7a 
    1a2a:	48 8d 94 24 54 24 00 	lea    0x2454(%rsp),%rdx
    1a31:	00 
    1a32:	48 8d 35 aa 0b 00 00 	lea    0xbaa(%rip),%rsi        # 25e3 <array.3089+0x1c3>
    1a39:	bf 02 00 00 00       	mov    $0x2,%edi
    1a3e:	b8 00 00 00 00       	mov    $0x0,%eax
    1a43:	e8 f8 f5 ff ff       	callq  1040 <inet_pton@plt>
    1a48:	85 c0                	test   %eax,%eax
    1a4a:	0f 88 09 02 00 00    	js     1c59 <send_msg+0x28e>
    1a50:	48 8d b4 24 50 24 00 	lea    0x2450(%rsp),%rsi
    1a57:	00 
    1a58:	ba 10 00 00 00       	mov    $0x10,%edx
    1a5d:	44 89 ff             	mov    %r15d,%edi
    1a60:	e8 6b f6 ff ff       	callq  10d0 <connect@plt>
    1a65:	85 c0                	test   %eax,%eax
    1a67:	0f 88 22 02 00 00    	js     1c8f <send_msg+0x2c4>
    1a6d:	48 8d 6c 24 50       	lea    0x50(%rsp),%rbp
    1a72:	48 b8 53 75 62 6a 65 	movabs $0x3a7463656a627553,%rax
    1a79:	63 74 3a 
    1a7c:	48 89 44 24 50       	mov    %rax,0x50(%rsp)
    1a81:	48 b8 20 42 6f 6d 62 	movabs $0x6f6e20626d6f4220,%rax
    1a88:	20 6e 6f 
    1a8b:	48 89 44 24 58       	mov    %rax,0x58(%rsp)
    1a90:	48 b8 74 69 66 69 63 	movabs $0x6974616369666974,%rax
    1a97:	61 74 69 
    1a9a:	48 89 44 24 60       	mov    %rax,0x60(%rsp)
    1a9f:	c7 44 24 68 6f 6e 0a 	movl   $0xa6e6f,0x68(%rsp)
    1aa6:	00 
    1aa7:	48 8d 9c 24 50 04 00 	lea    0x450(%rsp),%rbx
    1aae:	00 
    1aaf:	48 89 ee             	mov    %rbp,%rsi
    1ab2:	48 89 df             	mov    %rbx,%rdi
    1ab5:	e8 e6 f5 ff ff       	callq  10a0 <strcat@plt>
    1aba:	66 c7 44 24 50 0a 00 	movw   $0xa,0x50(%rsp)
    1ac1:	48 89 ee             	mov    %rbp,%rsi
    1ac4:	48 89 df             	mov    %rbx,%rdi
    1ac7:	e8 d4 f5 ff ff       	callq  10a0 <strcat@plt>
    1acc:	bf 00 00 00 00       	mov    $0x0,%edi
    1ad1:	e8 aa f5 ff ff       	callq  1080 <cuserid@plt>
    1ad6:	48 85 c0             	test   %rax,%rax
    1ad9:	0f 84 e6 01 00 00    	je     1cc5 <send_msg+0x2fa>
    1adf:	48 89 e7             	mov    %rsp,%rdi
    1ae2:	48 89 c6             	mov    %rax,%rsi
    1ae5:	e8 56 f4 ff ff       	callq  f40 <strcpy@plt>
    1aea:	45 85 e4             	test   %r12d,%r12d
    1aed:	48 8d 05 05 0b 00 00 	lea    0xb05(%rip),%rax        # 25f9 <array.3089+0x1d9>
    1af4:	4c 8d 0d f6 0a 00 00 	lea    0xaf6(%rip),%r9        # 25f1 <array.3089+0x1d1>
    1afb:	4c 0f 44 c8          	cmove  %rax,%r9
    1aff:	48 8d 5c 24 50       	lea    0x50(%rsp),%rbx
    1b04:	48 83 ec 08          	sub    $0x8,%rsp
    1b08:	8b 05 ee 2c 20 00    	mov    0x202cee(%rip),%eax        # 2047fc <num_input_strings>
    1b0e:	50                   	push   %rax
    1b0f:	4c 8d 44 24 10       	lea    0x10(%rsp),%r8
    1b14:	8b 0d 46 2b 20 00    	mov    0x202b46(%rip),%ecx        # 204660 <bomb_id>
    1b1a:	48 8d 15 3f 27 20 00 	lea    0x20273f(%rip),%rdx        # 204260 <lab_id>
    1b21:	48 8d 35 f5 0a 00 00 	lea    0xaf5(%rip),%rsi        # 261d <array.3089+0x1fd>
    1b28:	48 89 df             	mov    %rbx,%rdi
    1b2b:	b8 00 00 00 00       	mov    $0x0,%eax
    1b30:	e8 7b f5 ff ff       	callq  10b0 <sprintf@plt>
    1b35:	48 8d bc 24 60 04 00 	lea    0x460(%rsp),%rdi
    1b3c:	00 
    1b3d:	48 89 de             	mov    %rbx,%rsi
    1b40:	e8 5b f5 ff ff       	callq  10a0 <strcat@plt>
    1b45:	48 83 c4 10          	add    $0x10,%rsp
    1b49:	83 3d ac 2c 20 00 00 	cmpl   $0x0,0x202cac(%rip)        # 2047fc <num_input_strings>
    1b50:	7e 70                	jle    1bc2 <send_msg+0x1f7>
    1b52:	bb 00 00 00 00       	mov    $0x0,%ebx
    1b57:	4c 8d 35 c2 2c 20 00 	lea    0x202cc2(%rip),%r14        # 204820 <input_strings>
    1b5e:	49 89 e5             	mov    %rsp,%r13
    1b61:	48 8d 6c 24 50       	lea    0x50(%rsp),%rbp
    1b66:	4c 8d a4 24 50 04 00 	lea    0x450(%rsp),%r12
    1b6d:	00 
    1b6e:	48 63 c3             	movslq %ebx,%rax
    1b71:	48 8d 04 80          	lea    (%rax,%rax,4),%rax
    1b75:	48 c1 e0 04          	shl    $0x4,%rax
    1b79:	4c 01 f0             	add    %r14,%rax
    1b7c:	83 c3 01             	add    $0x1,%ebx
    1b7f:	48 83 ec 08          	sub    $0x8,%rsp
    1b83:	50                   	push   %rax
    1b84:	41 89 d9             	mov    %ebx,%r9d
    1b87:	4d 89 e8             	mov    %r13,%r8
    1b8a:	8b 0d d0 2a 20 00    	mov    0x202ad0(%rip),%ecx        # 204660 <bomb_id>
    1b90:	48 8d 15 c9 26 20 00 	lea    0x2026c9(%rip),%rdx        # 204260 <lab_id>
    1b97:	48 8d 35 9b 0a 00 00 	lea    0xa9b(%rip),%rsi        # 2639 <array.3089+0x219>
    1b9e:	48 89 ef             	mov    %rbp,%rdi
    1ba1:	b8 00 00 00 00       	mov    $0x0,%eax
    1ba6:	e8 05 f5 ff ff       	callq  10b0 <sprintf@plt>
    1bab:	48 89 ee             	mov    %rbp,%rsi
    1bae:	4c 89 e7             	mov    %r12,%rdi
    1bb1:	e8 ea f4 ff ff       	callq  10a0 <strcat@plt>
    1bb6:	48 83 c4 10          	add    $0x10,%rsp
    1bba:	39 1d 3c 2c 20 00    	cmp    %ebx,0x202c3c(%rip)        # 2047fc <num_input_strings>
    1bc0:	7f ac                	jg     1b6e <send_msg+0x1a3>
    1bc2:	48 8d ac 24 50 04 00 	lea    0x450(%rsp),%rbp
    1bc9:	00 
    1bca:	49 c7 c4 ff ff ff ff 	mov    $0xffffffffffffffff,%r12
    1bd1:	bb 00 00 00 00       	mov    $0x0,%ebx
    1bd6:	4c 89 e1             	mov    %r12,%rcx
    1bd9:	48 89 ef             	mov    %rbp,%rdi
    1bdc:	89 d8                	mov    %ebx,%eax
    1bde:	f2 ae                	repnz scas %es:(%rdi),%al
    1be0:	48 f7 d1             	not    %rcx
    1be3:	4a 8d 14 21          	lea    (%rcx,%r12,1),%rdx
    1be7:	48 89 ee             	mov    %rbp,%rsi
    1bea:	44 89 ff             	mov    %r15d,%edi
    1bed:	e8 79 fd ff ff       	callq  196b <writen>
    1bf2:	48 89 c2             	mov    %rax,%rdx
    1bf5:	4c 89 e1             	mov    %r12,%rcx
    1bf8:	48 89 ef             	mov    %rbp,%rdi
    1bfb:	89 d8                	mov    %ebx,%eax
    1bfd:	f2 ae                	repnz scas %es:(%rdi),%al
    1bff:	48 f7 d1             	not    %rcx
    1c02:	4c 01 e1             	add    %r12,%rcx
    1c05:	48 39 ca             	cmp    %rcx,%rdx
    1c08:	0f 82 cf 00 00 00    	jb     1cdd <send_msg+0x312>
    1c0e:	44 89 ff             	mov    %r15d,%edi
    1c11:	e8 aa f3 ff ff       	callq  fc0 <close@plt>
    1c16:	48 81 c4 68 24 00 00 	add    $0x2468,%rsp
    1c1d:	5b                   	pop    %rbx
    1c1e:	5d                   	pop    %rbp
    1c1f:	41 5c                	pop    %r12
    1c21:	41 5d                	pop    %r13
    1c23:	41 5e                	pop    %r14
    1c25:	41 5f                	pop    %r15
    1c27:	c3                   	retq   
    1c28:	48 8d 15 d3 09 00 00 	lea    0x9d3(%rip),%rdx        # 2602 <array.3089+0x1e2>
    1c2f:	48 8d 35 27 06 00 00 	lea    0x627(%rip),%rsi        # 225d <_IO_stdin_used+0x1d>
    1c36:	48 8b 3d a3 2b 20 00 	mov    0x202ba3(%rip),%rdi        # 2047e0 <stdout@@GLIBC_2.2.5>
    1c3d:	b8 00 00 00 00       	mov    $0x0,%eax
    1c42:	e8 d9 f3 ff ff       	callq  1020 <fprintf@plt>
    1c47:	44 89 ff             	mov    %r15d,%edi
    1c4a:	e8 71 f3 ff ff       	callq  fc0 <close@plt>
    1c4f:	bf 01 00 00 00       	mov    $0x1,%edi
    1c54:	e8 67 f4 ff ff       	callq  10c0 <exit@plt>
    1c59:	48 8d 15 16 0a 00 00 	lea    0xa16(%rip),%rdx        # 2676 <array.3089+0x256>
    1c60:	48 8d 35 f6 05 00 00 	lea    0x5f6(%rip),%rsi        # 225d <_IO_stdin_used+0x1d>
    1c67:	48 8b 3d 72 2b 20 00 	mov    0x202b72(%rip),%rdi        # 2047e0 <stdout@@GLIBC_2.2.5>
    1c6e:	b8 00 00 00 00       	mov    $0x0,%eax
    1c73:	e8 a8 f3 ff ff       	callq  1020 <fprintf@plt>
    1c78:	45 85 ff             	test   %r15d,%r15d
    1c7b:	74 08                	je     1c85 <send_msg+0x2ba>
    1c7d:	44 89 ff             	mov    %r15d,%edi
    1c80:	e8 3b f3 ff ff       	callq  fc0 <close@plt>
    1c85:	bf 01 00 00 00       	mov    $0x1,%edi
    1c8a:	e8 31 f4 ff ff       	callq  10c0 <exit@plt>
    1c8f:	48 8d 15 79 09 00 00 	lea    0x979(%rip),%rdx        # 260f <array.3089+0x1ef>
    1c96:	48 8d 35 c0 05 00 00 	lea    0x5c0(%rip),%rsi        # 225d <_IO_stdin_used+0x1d>
    1c9d:	48 8b 3d 3c 2b 20 00 	mov    0x202b3c(%rip),%rdi        # 2047e0 <stdout@@GLIBC_2.2.5>
    1ca4:	b8 00 00 00 00       	mov    $0x0,%eax
    1ca9:	e8 72 f3 ff ff       	callq  1020 <fprintf@plt>
    1cae:	45 85 ff             	test   %r15d,%r15d
    1cb1:	74 08                	je     1cbb <send_msg+0x2f0>
    1cb3:	44 89 ff             	mov    %r15d,%edi
    1cb6:	e8 05 f3 ff ff       	callq  fc0 <close@plt>
    1cbb:	bf 01 00 00 00       	mov    $0x1,%edi
    1cc0:	e8 fb f3 ff ff       	callq  10c0 <exit@plt>
    1cc5:	c7 04 24 6e 6f 62 6f 	movl   $0x6f626f6e,(%rsp)
    1ccc:	66 c7 44 24 04 64 79 	movw   $0x7964,0x4(%rsp)
    1cd3:	c6 44 24 06 00       	movb   $0x0,0x6(%rsp)
    1cd8:	e9 0d fe ff ff       	jmpq   1aea <send_msg+0x11f>
    1cdd:	48 8d 15 71 09 00 00 	lea    0x971(%rip),%rdx        # 2655 <array.3089+0x235>
    1ce4:	48 8d 35 72 05 00 00 	lea    0x572(%rip),%rsi        # 225d <_IO_stdin_used+0x1d>
    1ceb:	48 8b 3d ee 2a 20 00 	mov    0x202aee(%rip),%rdi        # 2047e0 <stdout@@GLIBC_2.2.5>
    1cf2:	e8 29 f3 ff ff       	callq  1020 <fprintf@plt>
    1cf7:	45 85 ff             	test   %r15d,%r15d
    1cfa:	74 08                	je     1d04 <send_msg+0x339>
    1cfc:	44 89 ff             	mov    %r15d,%edi
    1cff:	e8 bc f2 ff ff       	callq  fc0 <close@plt>
    1d04:	bf 01 00 00 00       	mov    $0x1,%edi
    1d09:	e8 b2 f3 ff ff       	callq  10c0 <exit@plt>

0000000000001d0e <send_msg_2>:
    1d0e:	41 57                	push   %r15
    1d10:	41 56                	push   %r14
    1d12:	41 55                	push   %r13
    1d14:	41 54                	push   %r12
    1d16:	55                   	push   %rbp
    1d17:	53                   	push   %rbx
    1d18:	48 83 ec 68          	sub    $0x68,%rsp
    1d1c:	89 fb                	mov    %edi,%ebx
    1d1e:	bf 00 00 00 00       	mov    $0x0,%edi
    1d23:	e8 88 f2 ff ff       	callq  fb0 <dup@plt>
    1d28:	89 44 24 0c          	mov    %eax,0xc(%rsp)
    1d2c:	83 f8 ff             	cmp    $0xffffffff,%eax
    1d2f:	0f 84 a6 01 00 00    	je     1edb <send_msg_2+0x1cd>
    1d35:	bf 00 00 00 00       	mov    $0x0,%edi
    1d3a:	e8 81 f2 ff ff       	callq  fc0 <close@plt>
    1d3f:	83 f8 ff             	cmp    $0xffffffff,%eax
    1d42:	0f 84 a9 01 00 00    	je     1ef1 <send_msg_2+0x1e3>
    1d48:	e8 a3 f2 ff ff       	callq  ff0 <tmpfile@plt>
    1d4d:	48 89 c5             	mov    %rax,%rbp
    1d50:	48 85 c0             	test   %rax,%rax
    1d53:	0f 84 ae 01 00 00    	je     1f07 <send_msg_2+0x1f9>
    1d59:	48 89 c1             	mov    %rax,%rcx
    1d5c:	ba 1b 00 00 00       	mov    $0x1b,%edx
    1d61:	be 01 00 00 00       	mov    $0x1,%esi
    1d66:	48 8d 3d 37 09 00 00 	lea    0x937(%rip),%rdi        # 26a4 <array.3089+0x284>
    1d6d:	e8 6e f3 ff ff       	callq  10e0 <fwrite@plt>
    1d72:	48 89 ee             	mov    %rbp,%rsi
    1d75:	bf 0a 00 00 00       	mov    $0xa,%edi
    1d7a:	e8 51 f2 ff ff       	callq  fd0 <fputc@plt>
    1d7f:	bf 00 00 00 00       	mov    $0x0,%edi
    1d84:	e8 f7 f2 ff ff       	callq  1080 <cuserid@plt>
    1d89:	48 85 c0             	test   %rax,%rax
    1d8c:	0f 84 8b 01 00 00    	je     1f1d <send_msg_2+0x20f>
    1d92:	48 8d 7c 24 10       	lea    0x10(%rsp),%rdi
    1d97:	48 89 c6             	mov    %rax,%rsi
    1d9a:	e8 a1 f1 ff ff       	callq  f40 <strcpy@plt>
    1d9f:	85 db                	test   %ebx,%ebx
    1da1:	48 8d 05 51 08 00 00 	lea    0x851(%rip),%rax        # 25f9 <array.3089+0x1d9>
    1da8:	4c 8d 0d 42 08 00 00 	lea    0x842(%rip),%r9        # 25f1 <array.3089+0x1d1>
    1daf:	4c 0f 44 c8          	cmove  %rax,%r9
    1db3:	48 83 ec 08          	sub    $0x8,%rsp
    1db7:	8b 05 3f 2a 20 00    	mov    0x202a3f(%rip),%eax        # 2047fc <num_input_strings>
    1dbd:	50                   	push   %rax
    1dbe:	4c 8d 44 24 20       	lea    0x20(%rsp),%r8
    1dc3:	8b 0d 97 28 20 00    	mov    0x202897(%rip),%ecx        # 204660 <bomb_id>
    1dc9:	48 8d 15 90 24 20 00 	lea    0x202490(%rip),%rdx        # 204260 <lab_id>
    1dd0:	48 8d 35 46 08 00 00 	lea    0x846(%rip),%rsi        # 261d <array.3089+0x1fd>
    1dd7:	48 89 ef             	mov    %rbp,%rdi
    1dda:	b8 00 00 00 00       	mov    $0x0,%eax
    1ddf:	e8 3c f2 ff ff       	callq  1020 <fprintf@plt>
    1de4:	48 83 c4 10          	add    $0x10,%rsp
    1de8:	83 3d 0d 2a 20 00 00 	cmpl   $0x0,0x202a0d(%rip)        # 2047fc <num_input_strings>
    1def:	7e 60                	jle    1e51 <send_msg_2+0x143>
    1df1:	bb 00 00 00 00       	mov    $0x0,%ebx
    1df6:	4c 8d 3d 23 2a 20 00 	lea    0x202a23(%rip),%r15        # 204820 <input_strings>
    1dfd:	4c 8d 74 24 10       	lea    0x10(%rsp),%r14
    1e02:	4c 8d 2d 57 24 20 00 	lea    0x202457(%rip),%r13        # 204260 <lab_id>
    1e09:	4c 8d 25 29 08 00 00 	lea    0x829(%rip),%r12        # 2639 <array.3089+0x219>
    1e10:	48 63 c3             	movslq %ebx,%rax
    1e13:	48 8d 04 80          	lea    (%rax,%rax,4),%rax
    1e17:	48 c1 e0 04          	shl    $0x4,%rax
    1e1b:	4c 01 f8             	add    %r15,%rax
    1e1e:	83 c3 01             	add    $0x1,%ebx
    1e21:	48 83 ec 08          	sub    $0x8,%rsp
    1e25:	50                   	push   %rax
    1e26:	41 89 d9             	mov    %ebx,%r9d
    1e29:	4d 89 f0             	mov    %r14,%r8
    1e2c:	8b 0d 2e 28 20 00    	mov    0x20282e(%rip),%ecx        # 204660 <bomb_id>
    1e32:	4c 89 ea             	mov    %r13,%rdx
    1e35:	4c 89 e6             	mov    %r12,%rsi
    1e38:	48 89 ef             	mov    %rbp,%rdi
    1e3b:	b8 00 00 00 00       	mov    $0x0,%eax
    1e40:	e8 db f1 ff ff       	callq  1020 <fprintf@plt>
    1e45:	48 83 c4 10          	add    $0x10,%rsp
    1e49:	39 1d ad 29 20 00    	cmp    %ebx,0x2029ad(%rip)        # 2047fc <num_input_strings>
    1e4f:	7f bf                	jg     1e10 <send_msg_2+0x102>
    1e51:	48 89 ef             	mov    %rbp,%rdi
    1e54:	e8 47 f1 ff ff       	callq  fa0 <rewind@plt>
    1e59:	4c 8d 05 60 08 00 00 	lea    0x860(%rip),%r8        # 26c0 <array.3089+0x2a0>
    1e60:	48 8d 0d 63 08 00 00 	lea    0x863(%rip),%rcx        # 26ca <array.3089+0x2aa>
    1e67:	48 8d 15 64 08 00 00 	lea    0x864(%rip),%rdx        # 26d2 <array.3089+0x2b2>
    1e6e:	48 8d 35 74 08 00 00 	lea    0x874(%rip),%rsi        # 26e9 <array.3089+0x2c9>
    1e75:	48 8d 3d e4 2f 20 00 	lea    0x202fe4(%rip),%rdi        # 204e60 <scratch>
    1e7c:	b8 00 00 00 00       	mov    $0x0,%eax
    1e81:	e8 2a f2 ff ff       	callq  10b0 <sprintf@plt>
    1e86:	48 8d 3d d3 2f 20 00 	lea    0x202fd3(%rip),%rdi        # 204e60 <scratch>
    1e8d:	e8 ee f0 ff ff       	callq  f80 <system@plt>
    1e92:	85 c0                	test   %eax,%eax
    1e94:	0f 85 9c 00 00 00    	jne    1f36 <send_msg_2+0x228>
    1e9a:	48 89 ef             	mov    %rbp,%rdi
    1e9d:	e8 ce f0 ff ff       	callq  f70 <fclose@plt>
    1ea2:	85 c0                	test   %eax,%eax
    1ea4:	0f 85 a2 00 00 00    	jne    1f4c <send_msg_2+0x23e>
    1eaa:	8b 7c 24 0c          	mov    0xc(%rsp),%edi
    1eae:	e8 fd f0 ff ff       	callq  fb0 <dup@plt>
    1eb3:	85 c0                	test   %eax,%eax
    1eb5:	0f 85 a7 00 00 00    	jne    1f62 <send_msg_2+0x254>
    1ebb:	8b 7c 24 0c          	mov    0xc(%rsp),%edi
    1ebf:	e8 fc f0 ff ff       	callq  fc0 <close@plt>
    1ec4:	85 c0                	test   %eax,%eax
    1ec6:	0f 85 ac 00 00 00    	jne    1f78 <send_msg_2+0x26a>
    1ecc:	48 83 c4 68          	add    $0x68,%rsp
    1ed0:	5b                   	pop    %rbx
    1ed1:	5d                   	pop    %rbp
    1ed2:	41 5c                	pop    %r12
    1ed4:	41 5d                	pop    %r13
    1ed6:	41 5e                	pop    %r14
    1ed8:	41 5f                	pop    %r15
    1eda:	c3                   	retq   
    1edb:	48 8d 3d 86 07 00 00 	lea    0x786(%rip),%rdi        # 2668 <array.3089+0x248>
    1ee2:	e8 69 f0 ff ff       	callq  f50 <puts@plt>
    1ee7:	bf 08 00 00 00       	mov    $0x8,%edi
    1eec:	e8 cf f1 ff ff       	callq  10c0 <exit@plt>
    1ef1:	48 8d 3d 84 07 00 00 	lea    0x784(%rip),%rdi        # 267c <array.3089+0x25c>
    1ef8:	e8 53 f0 ff ff       	callq  f50 <puts@plt>
    1efd:	bf 08 00 00 00       	mov    $0x8,%edi
    1f02:	e8 b9 f1 ff ff       	callq  10c0 <exit@plt>
    1f07:	48 8d 3d 81 07 00 00 	lea    0x781(%rip),%rdi        # 268f <array.3089+0x26f>
    1f0e:	e8 3d f0 ff ff       	callq  f50 <puts@plt>
    1f13:	bf 08 00 00 00       	mov    $0x8,%edi
    1f18:	e8 a3 f1 ff ff       	callq  10c0 <exit@plt>
    1f1d:	c7 44 24 10 6e 6f 62 	movl   $0x6f626f6e,0x10(%rsp)
    1f24:	6f 
    1f25:	66 c7 44 24 14 64 79 	movw   $0x7964,0x14(%rsp)
    1f2c:	c6 44 24 16 00       	movb   $0x0,0x16(%rsp)
    1f31:	e9 69 fe ff ff       	jmpq   1d9f <send_msg_2+0x91>
    1f36:	48 8d 3d b5 07 00 00 	lea    0x7b5(%rip),%rdi        # 26f2 <array.3089+0x2d2>
    1f3d:	e8 0e f0 ff ff       	callq  f50 <puts@plt>
    1f42:	bf 08 00 00 00       	mov    $0x8,%edi
    1f47:	e8 74 f1 ff ff       	callq  10c0 <exit@plt>
    1f4c:	48 8d 3d b9 07 00 00 	lea    0x7b9(%rip),%rdi        # 270c <array.3089+0x2ec>
    1f53:	e8 f8 ef ff ff       	callq  f50 <puts@plt>
    1f58:	bf 08 00 00 00       	mov    $0x8,%edi
    1f5d:	e8 5e f1 ff ff       	callq  10c0 <exit@plt>
    1f62:	48 8d 3d bc 07 00 00 	lea    0x7bc(%rip),%rdi        # 2725 <array.3089+0x305>
    1f69:	e8 e2 ef ff ff       	callq  f50 <puts@plt>
    1f6e:	bf 08 00 00 00       	mov    $0x8,%edi
    1f73:	e8 48 f1 ff ff       	callq  10c0 <exit@plt>
    1f78:	48 8d 3d c1 07 00 00 	lea    0x7c1(%rip),%rdi        # 2740 <array.3089+0x320>
    1f7f:	e8 cc ef ff ff       	callq  f50 <puts@plt>
    1f84:	bf 08 00 00 00       	mov    $0x8,%edi
    1f89:	e8 32 f1 ff ff       	callq  10c0 <exit@plt>

0000000000001f8e <explode_bomb>:
    1f8e:	48 83 ec 08          	sub    $0x8,%rsp
    1f92:	48 8d 3d be 07 00 00 	lea    0x7be(%rip),%rdi        # 2757 <array.3089+0x337>
    1f99:	e8 b2 ef ff ff       	callq  f50 <puts@plt>
    1f9e:	48 8d 3d bb 07 00 00 	lea    0x7bb(%rip),%rdi        # 2760 <array.3089+0x340>
    1fa5:	e8 a6 ef ff ff       	callq  f50 <puts@plt>
    1faa:	bf 00 00 00 00       	mov    $0x0,%edi
    1faf:	e8 17 fa ff ff       	callq  19cb <send_msg>
    1fb4:	48 8d 3d dd 04 00 00 	lea    0x4dd(%rip),%rdi        # 2498 <array.3089+0x78>
    1fbb:	e8 90 ef ff ff       	callq  f50 <puts@plt>
    1fc0:	bf 08 00 00 00       	mov    $0x8,%edi
    1fc5:	e8 f6 f0 ff ff       	callq  10c0 <exit@plt>

0000000000001fca <read_six_numbers>:
    1fca:	48 83 ec 08          	sub    $0x8,%rsp
    1fce:	48 89 f2             	mov    %rsi,%rdx
    1fd1:	48 8d 4e 04          	lea    0x4(%rsi),%rcx
    1fd5:	48 8d 46 14          	lea    0x14(%rsi),%rax
    1fd9:	50                   	push   %rax
    1fda:	48 8d 46 10          	lea    0x10(%rsi),%rax
    1fde:	50                   	push   %rax
    1fdf:	4c 8d 4e 0c          	lea    0xc(%rsi),%r9
    1fe3:	4c 8d 46 08          	lea    0x8(%rsi),%r8
    1fe7:	48 8d 35 89 07 00 00 	lea    0x789(%rip),%rsi        # 2777 <array.3089+0x357>
    1fee:	b8 00 00 00 00       	mov    $0x0,%eax
    1ff3:	e8 68 f0 ff ff       	callq  1060 <__isoc99_sscanf@plt>
    1ff8:	48 83 c4 10          	add    $0x10,%rsp
    1ffc:	83 f8 05             	cmp    $0x5,%eax
    1fff:	7e 05                	jle    2006 <read_six_numbers+0x3c>
    2001:	48 83 c4 08          	add    $0x8,%rsp
    2005:	c3                   	retq   
    2006:	e8 83 ff ff ff       	callq  1f8e <explode_bomb>

000000000000200b <read_line>:
    200b:	48 83 ec 08          	sub    $0x8,%rsp
    200f:	b8 00 00 00 00       	mov    $0x0,%eax
    2014:	e8 04 f9 ff ff       	callq  191d <skip>
    2019:	48 85 c0             	test   %rax,%rax
    201c:	74 6f                	je     208d <read_line+0x82>
    201e:	8b 35 d8 27 20 00    	mov    0x2027d8(%rip),%esi        # 2047fc <num_input_strings>
    2024:	48 63 c6             	movslq %esi,%rax
    2027:	48 8d 14 80          	lea    (%rax,%rax,4),%rdx
    202b:	48 c1 e2 04          	shl    $0x4,%rdx
    202f:	48 8d 05 ea 27 20 00 	lea    0x2027ea(%rip),%rax        # 204820 <input_strings>
    2036:	48 01 c2             	add    %rax,%rdx
    2039:	b8 00 00 00 00       	mov    $0x0,%eax
    203e:	48 c7 c1 ff ff ff ff 	mov    $0xffffffffffffffff,%rcx
    2045:	48 89 d7             	mov    %rdx,%rdi
    2048:	f2 ae                	repnz scas %es:(%rdi),%al
    204a:	48 f7 d1             	not    %rcx
    204d:	48 83 e9 01          	sub    $0x1,%rcx
    2051:	83 f9 4f             	cmp    $0x4f,%ecx
    2054:	0f 84 a1 00 00 00    	je     20fb <read_line+0xf0>
    205a:	83 e9 01             	sub    $0x1,%ecx
    205d:	48 63 c9             	movslq %ecx,%rcx
    2060:	48 63 c6             	movslq %esi,%rax
    2063:	48 8d 04 80          	lea    (%rax,%rax,4),%rax
    2067:	48 c1 e0 04          	shl    $0x4,%rax
    206b:	48 89 c7             	mov    %rax,%rdi
    206e:	48 8d 05 ab 27 20 00 	lea    0x2027ab(%rip),%rax        # 204820 <input_strings>
    2075:	48 01 f8             	add    %rdi,%rax
    2078:	c6 04 08 00          	movb   $0x0,(%rax,%rcx,1)
    207c:	83 c6 01             	add    $0x1,%esi
    207f:	89 35 77 27 20 00    	mov    %esi,0x202777(%rip)        # 2047fc <num_input_strings>
    2085:	48 89 d0             	mov    %rdx,%rax
    2088:	48 83 c4 08          	add    $0x8,%rsp
    208c:	c3                   	retq   
    208d:	48 8b 05 5c 27 20 00 	mov    0x20275c(%rip),%rax        # 2047f0 <stdin@@GLIBC_2.2.5>
    2094:	48 39 05 65 27 20 00 	cmp    %rax,0x202765(%rip)        # 204800 <infile>
    209b:	74 43                	je     20e0 <read_line+0xd5>
    209d:	48 8d 3d 03 07 00 00 	lea    0x703(%rip),%rdi        # 27a7 <array.3089+0x387>
    20a4:	e8 77 ee ff ff       	callq  f20 <getenv@plt>
    20a9:	48 85 c0             	test   %rax,%rax
    20ac:	75 43                	jne    20f1 <read_line+0xe6>
    20ae:	48 8b 05 3b 27 20 00 	mov    0x20273b(%rip),%rax        # 2047f0 <stdin@@GLIBC_2.2.5>
    20b5:	48 89 05 44 27 20 00 	mov    %rax,0x202744(%rip)        # 204800 <infile>
    20bc:	b8 00 00 00 00       	mov    $0x0,%eax
    20c1:	e8 57 f8 ff ff       	callq  191d <skip>
    20c6:	48 85 c0             	test   %rax,%rax
    20c9:	0f 85 4f ff ff ff    	jne    201e <read_line+0x13>
    20cf:	48 8d 3d b3 06 00 00 	lea    0x6b3(%rip),%rdi        # 2789 <array.3089+0x369>
    20d6:	e8 75 ee ff ff       	callq  f50 <puts@plt>
    20db:	e8 ae fe ff ff       	callq  1f8e <explode_bomb>
    20e0:	48 8d 3d a2 06 00 00 	lea    0x6a2(%rip),%rdi        # 2789 <array.3089+0x369>
    20e7:	e8 64 ee ff ff       	callq  f50 <puts@plt>
    20ec:	e8 9d fe ff ff       	callq  1f8e <explode_bomb>
    20f1:	bf 00 00 00 00       	mov    $0x0,%edi
    20f6:	e8 c5 ef ff ff       	callq  10c0 <exit@plt>
    20fb:	48 8d 3d b0 06 00 00 	lea    0x6b0(%rip),%rdi        # 27b2 <array.3089+0x392>
    2102:	e8 49 ee ff ff       	callq  f50 <puts@plt>
    2107:	e8 82 fe ff ff       	callq  1f8e <explode_bomb>

000000000000210c <phase_defused>:
    210c:	48 83 ec 68          	sub    $0x68,%rsp
    2110:	bf 01 00 00 00       	mov    $0x1,%edi
    2115:	e8 b1 f8 ff ff       	callq  19cb <send_msg>
    211a:	83 3d db 26 20 00 06 	cmpl   $0x6,0x2026db(%rip)        # 2047fc <num_input_strings>
    2121:	74 05                	je     2128 <phase_defused+0x1c>
    2123:	48 83 c4 68          	add    $0x68,%rsp
    2127:	c3                   	retq   
    2128:	48 8d 4c 24 10       	lea    0x10(%rsp),%rcx
    212d:	48 8d 54 24 0c       	lea    0xc(%rsp),%rdx
    2132:	48 8d 35 94 06 00 00 	lea    0x694(%rip),%rsi        # 27cd <array.3089+0x3ad>
    2139:	48 8d 3d d0 27 20 00 	lea    0x2027d0(%rip),%rdi        # 204910 <input_strings+0xf0>
    2140:	b8 00 00 00 00       	mov    $0x0,%eax
    2145:	e8 16 ef ff ff       	callq  1060 <__isoc99_sscanf@plt>
    214a:	83 f8 02             	cmp    $0x2,%eax
    214d:	74 1a                	je     2169 <phase_defused+0x5d>
    214f:	48 8d 3d ca 03 00 00 	lea    0x3ca(%rip),%rdi        # 2520 <array.3089+0x100>
    2156:	e8 f5 ed ff ff       	callq  f50 <puts@plt>
    215b:	48 8d 3d ee 03 00 00 	lea    0x3ee(%rip),%rdi        # 2550 <array.3089+0x130>
    2162:	e8 e9 ed ff ff       	callq  f50 <puts@plt>
    2167:	eb ba                	jmp    2123 <phase_defused+0x17>
    2169:	48 8d 7c 24 10       	lea    0x10(%rsp),%rdi
    216e:	48 8d 35 5e 06 00 00 	lea    0x65e(%rip),%rsi        # 27d3 <array.3089+0x3b3>
    2175:	e8 04 f6 ff ff       	callq  177e <strings_not_equal>
    217a:	85 c0                	test   %eax,%eax
    217c:	75 d1                	jne    214f <phase_defused+0x43>
    217e:	48 8d 3d 3b 03 00 00 	lea    0x33b(%rip),%rdi        # 24c0 <array.3089+0xa0>
    2185:	e8 c6 ed ff ff       	callq  f50 <puts@plt>
    218a:	48 8d 3d 57 03 00 00 	lea    0x357(%rip),%rdi        # 24e8 <array.3089+0xc8>
    2191:	e8 ba ed ff ff       	callq  f50 <puts@plt>
    2196:	b8 00 00 00 00       	mov    $0x0,%eax
    219b:	e8 f0 f4 ff ff       	callq  1690 <secret_phase>
    21a0:	eb ad                	jmp    214f <phase_defused+0x43>
    21a2:	66 2e 0f 1f 84 00 00 	nopw   %cs:0x0(%rax,%rax,1)
    21a9:	00 00 00 
    21ac:	0f 1f 40 00          	nopl   0x0(%rax)

00000000000021b0 <__libc_csu_init>:
    21b0:	41 57                	push   %r15
    21b2:	41 56                	push   %r14
    21b4:	41 89 ff             	mov    %edi,%r15d
    21b7:	41 55                	push   %r13
    21b9:	41 54                	push   %r12
    21bb:	4c 8d 25 16 1c 20 00 	lea    0x201c16(%rip),%r12        # 203dd8 <__frame_dummy_init_array_entry>
    21c2:	55                   	push   %rbp
    21c3:	48 8d 2d 16 1c 20 00 	lea    0x201c16(%rip),%rbp        # 203de0 <__init_array_end>
    21ca:	53                   	push   %rbx
    21cb:	49 89 f6             	mov    %rsi,%r14
    21ce:	49 89 d5             	mov    %rdx,%r13
    21d1:	4c 29 e5             	sub    %r12,%rbp
    21d4:	48 83 ec 08          	sub    $0x8,%rsp
    21d8:	48 c1 fd 03          	sar    $0x3,%rbp
    21dc:	e8 17 ed ff ff       	callq  ef8 <_init>
    21e1:	48 85 ed             	test   %rbp,%rbp
    21e4:	74 20                	je     2206 <__libc_csu_init+0x56>
    21e6:	31 db                	xor    %ebx,%ebx
    21e8:	0f 1f 84 00 00 00 00 	nopl   0x0(%rax,%rax,1)
    21ef:	00 
    21f0:	4c 89 ea             	mov    %r13,%rdx
    21f3:	4c 89 f6             	mov    %r14,%rsi
    21f6:	44 89 ff             	mov    %r15d,%edi
    21f9:	41 ff 14 dc          	callq  *(%r12,%rbx,8)
    21fd:	48 83 c3 01          	add    $0x1,%rbx
    2201:	48 39 dd             	cmp    %rbx,%rbp
    2204:	75 ea                	jne    21f0 <__libc_csu_init+0x40>
    2206:	48 83 c4 08          	add    $0x8,%rsp
    220a:	5b                   	pop    %rbx
    220b:	5d                   	pop    %rbp
    220c:	41 5c                	pop    %r12
    220e:	41 5d                	pop    %r13
    2210:	41 5e                	pop    %r14
    2212:	41 5f                	pop    %r15
    2214:	c3                   	retq   
    2215:	90                   	nop
    2216:	66 2e 0f 1f 84 00 00 	nopw   %cs:0x0(%rax,%rax,1)
    221d:	00 00 00 

0000000000002220 <__libc_csu_fini>:
    2220:	f3 c3                	repz retq 

Disassembly of section .fini:

0000000000002224 <_fini>:
    2224:	48 83 ec 08          	sub    $0x8,%rsp
    2228:	48 83 c4 08          	add    $0x8,%rsp
    222c:	c3                   	retq   
